; ModuleID = 'source-C-CXX/12/1703.cpp'
source_filename = "source-C-CXX/12/1703.cpp"
target datalayout = "e-m:e-p270:32:32-p271:32:32-p272:64:64-i64:64-f80:128-n8:16:32:64-S128"
target triple = "x86_64-pc-linux-gnu"

%"class.std::ios_base::Init" = type { i8 }
%"class.std::basic_istream" = type { i32 (...)**, i64, %"class.std::basic_ios" }
%"class.std::basic_ios" = type { %"class.std::ios_base", %"class.std::basic_ostream"*, i8, i8, %"class.std::basic_streambuf"*, %"class.std::ctype"*, %"class.std::num_put"*, %"class.std::num_get"* }
%"class.std::ios_base" = type { i32 (...)**, i64, i64, i32, i32, i32, %"struct.std::ios_base::_Callback_list"*, %"struct.std::ios_base::_Words", [8 x %"struct.std::ios_base::_Words"], i32, %"struct.std::ios_base::_Words"*, %"class.std::locale" }
%"struct.std::ios_base::_Callback_list" = type { %"struct.std::ios_base::_Callback_list"*, void (i32, %"class.std::ios_base"*, i32)*, i32, i32 }
%"struct.std::ios_base::_Words" = type { i8*, i64 }
%"class.std::locale" = type { %"class.std::locale::_Impl"* }
%"class.std::locale::_Impl" = type { i32, %"class.std::locale::facet"**, i64, %"class.std::locale::facet"**, i8** }
%"class.std::locale::facet" = type <{ i32 (...)**, i32, [4 x i8] }>
%"class.std::basic_ostream" = type { i32 (...)**, %"class.std::basic_ios" }
%"class.std::basic_streambuf" = type { i32 (...)**, i8*, i8*, i8*, i8*, i8*, i8*, %"class.std::locale" }
%"class.std::ctype" = type <{ %"class.std::locale::facet.base", [4 x i8], %struct.__locale_struct*, i8, [7 x i8], i32*, i32*, i16*, i8, [256 x i8], [256 x i8], i8, [6 x i8] }>
%"class.std::locale::facet.base" = type <{ i32 (...)**, i32 }>
%struct.__locale_struct = type { [13 x %struct.__locale_data*], i16*, i32*, i32*, [13 x i8*] }
%struct.__locale_data = type opaque
%"class.std::num_put" = type { %"class.std::locale::facet.base", [4 x i8] }
%"class.std::num_get" = type { %"class.std::locale::facet.base", [4 x i8] }

@_ZStL8__ioinit = internal global %"class.std::ios_base::Init" zeroinitializer, align 1
@__dso_handle = external hidden global i8
@_ZSt3cin = external global %"class.std::basic_istream", align 8
@_ZSt4cout = external global %"class.std::basic_ostream", align 8
@.str = private unnamed_addr constant [2 x i8] c" \00", align 1
@llvm.global_ctors = appending global [1 x { i32, void ()*, i8* }] [{ i32, void ()*, i8* } { i32 65535, void ()* @_GLOBAL__sub_I_1703.cpp, i8* null }]

declare void @_ZNSt8ios_base4InitC1Ev(%"class.std::ios_base::Init"* nonnull align 1 dereferenceable(1)) unnamed_addr #0

; Function Attrs: nounwind
declare void @_ZNSt8ios_base4InitD1Ev(%"class.std::ios_base::Init"* nonnull align 1 dereferenceable(1)) unnamed_addr #1

; Function Attrs: nofree nounwind
declare i32 @__cxa_atexit(void (i8*)*, i8*, i8*) local_unnamed_addr #2

; Function Attrs: mustprogress norecurse sspstrong uwtable
define dso_local i32 @main() local_unnamed_addr #3 {
  %1 = alloca i32, align 4
  %2 = bitcast i32* %1 to i8*
  call void @llvm.lifetime.start.p0i8(i64 4, i8* nonnull %2) #7
  %3 = call nonnull align 8 dereferenceable(16) %"class.std::basic_istream"* @_ZNSirsERi(%"class.std::basic_istream"* nonnull align 8 dereferenceable(16) @_ZSt3cin, i32* nonnull align 4 dereferenceable(4) %1)
  %4 = load i32, i32* %1, align 4, !tbaa !5
  %5 = zext i32 %4 to i64
  %6 = call i8* @llvm.stacksave()
  %7 = alloca i32, i64 %5, align 16
  %8 = load i32, i32* %1, align 4, !tbaa !5
  %9 = icmp sgt i32 %8, 0
  br i1 %9, label %19, label %12

10:                                               ; preds = %19
  %11 = load i32, i32* %7, align 16, !tbaa !5
  br label %12

12:                                               ; preds = %10, %0
  %13 = phi i32 [ %11, %10 ], [ undef, %0 ]
  %14 = call nonnull align 8 dereferenceable(8) %"class.std::basic_ostream"* @_ZNSolsEi(%"class.std::basic_ostream"* nonnull align 8 dereferenceable(8) @_ZSt4cout, i32 %13)
  %15 = load i32, i32* %1, align 4, !tbaa !5
  %16 = icmp sgt i32 %15, 1
  br i1 %16, label %17, label %65

17:                                               ; preds = %12
  %18 = zext i32 %15 to i64
  br label %27

19:                                               ; preds = %0, %19
  %20 = phi i64 [ %23, %19 ], [ 0, %0 ]
  %21 = getelementptr inbounds i32, i32* %7, i64 %20
  %22 = call nonnull align 8 dereferenceable(16) %"class.std::basic_istream"* @_ZNSirsERi(%"class.std::basic_istream"* nonnull align 8 dereferenceable(16) @_ZSt3cin, i32* nonnull align 4 dereferenceable(4) %21)
  %23 = add nuw nsw i64 %20, 1
  %24 = load i32, i32* %1, align 4, !tbaa !5
  %25 = sext i32 %24 to i64
  %26 = icmp slt i64 %23, %25
  br i1 %26, label %19, label %10, !llvm.loop !9

27:                                               ; preds = %17, %47
  %28 = phi i64 [ 0, %17 ], [ %50, %47 ]
  %29 = phi i64 [ 1, %17 ], [ %48, %47 ]
  %30 = add i64 %28, 1
  %31 = getelementptr inbounds i32, i32* %7, i64 %29
  %32 = load i32, i32* %31, align 4, !tbaa !5
  %33 = and i64 %30, 1
  %34 = icmp eq i64 %28, 0
  br i1 %34, label %38, label %35

35:                                               ; preds = %27
  %36 = and i64 %30, -2
  br label %51

37:                                               ; preds = %47
  br i1 %16, label %66, label %65

38:                                               ; preds = %83, %27
  %39 = phi i32 [ %32, %27 ], [ %84, %83 ]
  %40 = phi i64 [ 0, %27 ], [ %85, %83 ]
  %41 = icmp eq i64 %33, 0
  br i1 %41, label %47, label %42

42:                                               ; preds = %38
  %43 = getelementptr inbounds i32, i32* %7, i64 %40
  %44 = load i32, i32* %43, align 4, !tbaa !5
  %45 = icmp eq i32 %39, %44
  br i1 %45, label %46, label %47

46:                                               ; preds = %42
  store i32 1, i32* %31, align 4, !tbaa !5
  br label %47

47:                                               ; preds = %46, %42, %38
  %48 = add nuw nsw i64 %29, 1
  %49 = icmp eq i64 %48, %18
  %50 = add i64 %28, 1
  br i1 %49, label %37, label %27, !llvm.loop !11

51:                                               ; preds = %83, %35
  %52 = phi i32 [ %32, %35 ], [ %84, %83 ]
  %53 = phi i64 [ 0, %35 ], [ %85, %83 ]
  %54 = phi i64 [ %36, %35 ], [ %86, %83 ]
  %55 = getelementptr inbounds i32, i32* %7, i64 %53
  %56 = load i32, i32* %55, align 8, !tbaa !5
  %57 = icmp eq i32 %52, %56
  br i1 %57, label %58, label %59

58:                                               ; preds = %51
  store i32 1, i32* %31, align 4, !tbaa !5
  br label %59

59:                                               ; preds = %51, %58
  %60 = phi i32 [ %52, %51 ], [ 1, %58 ]
  %61 = or i64 %53, 1
  %62 = getelementptr inbounds i32, i32* %7, i64 %61
  %63 = load i32, i32* %62, align 4, !tbaa !5
  %64 = icmp eq i32 %60, %63
  br i1 %64, label %82, label %83

65:                                               ; preds = %77, %12, %37
  call void @llvm.stackrestore(i8* %6)
  call void @llvm.lifetime.end.p0i8(i64 4, i8* nonnull %2) #7
  ret i32 0

66:                                               ; preds = %37, %77
  %67 = phi i32 [ %78, %77 ], [ %15, %37 ]
  %68 = phi i64 [ %79, %77 ], [ 1, %37 ]
  %69 = getelementptr inbounds i32, i32* %7, i64 %68
  %70 = load i32, i32* %69, align 4, !tbaa !5
  %71 = icmp sgt i32 %70, 1
  br i1 %71, label %72, label %77

72:                                               ; preds = %66
  %73 = call nonnull align 8 dereferenceable(8) %"class.std::basic_ostream"* @_ZSt16__ostream_insertIcSt11char_traitsIcEERSt13basic_ostreamIT_T0_ES6_PKS3_l(%"class.std::basic_ostream"* nonnull align 8 dereferenceable(8) @_ZSt4cout, i8* nonnull getelementptr inbounds ([2 x i8], [2 x i8]* @.str, i64 0, i64 0), i64 1)
  %74 = load i32, i32* %69, align 4, !tbaa !5
  %75 = call nonnull align 8 dereferenceable(8) %"class.std::basic_ostream"* @_ZNSolsEi(%"class.std::basic_ostream"* nonnull align 8 dereferenceable(8) @_ZSt4cout, i32 %74)
  %76 = load i32, i32* %1, align 4, !tbaa !5
  br label %77

77:                                               ; preds = %66, %72
  %78 = phi i32 [ %67, %66 ], [ %76, %72 ]
  %79 = add nuw nsw i64 %68, 1
  %80 = sext i32 %78 to i64
  %81 = icmp slt i64 %79, %80
  br i1 %81, label %66, label %65, !llvm.loop !12

82:                                               ; preds = %59
  store i32 1, i32* %31, align 4, !tbaa !5
  br label %83

83:                                               ; preds = %82, %59
  %84 = phi i32 [ %60, %59 ], [ 1, %82 ]
  %85 = add nuw nsw i64 %53, 2
  %86 = add i64 %54, -2
  %87 = icmp eq i64 %86, 0
  br i1 %87, label %38, label %51, !llvm.loop !13
}

; Function Attrs: argmemonly mustprogress nofree nosync nounwind willreturn
declare void @llvm.lifetime.start.p0i8(i64 immarg, i8* nocapture) #4

declare nonnull align 8 dereferenceable(16) %"class.std::basic_istream"* @_ZNSirsERi(%"class.std::basic_istream"* nonnull align 8 dereferenceable(16), i32* nonnull align 4 dereferenceable(4)) local_unnamed_addr #0

; Function Attrs: mustprogress nofree nosync nounwind willreturn
declare i8* @llvm.stacksave() #5

; Function Attrs: argmemonly mustprogress nofree nosync nounwind willreturn
declare void @llvm.lifetime.end.p0i8(i64 immarg, i8* nocapture) #4

declare nonnull align 8 dereferenceable(8) %"class.std::basic_ostream"* @_ZNSolsEi(%"class.std::basic_ostream"* nonnull align 8 dereferenceable(8), i32) local_unnamed_addr #0

; Function Attrs: mustprogress nofree nosync nounwind willreturn
declare void @llvm.stackrestore(i8*) #5

declare nonnull align 8 dereferenceable(8) %"class.std::basic_ostream"* @_ZSt16__ostream_insertIcSt11char_traitsIcEERSt13basic_ostreamIT_T0_ES6_PKS3_l(%"class.std::basic_ostream"* nonnull align 8 dereferenceable(8), i8*, i64) local_unnamed_addr #0

; Function Attrs: sspstrong uwtable
define internal void @_GLOBAL__sub_I_1703.cpp() #6 section ".text.startup" {
  tail call void @_ZNSt8ios_base4InitC1Ev(%"class.std::ios_base::Init"* nonnull align 1 dereferenceable(1) @_ZStL8__ioinit)
  %1 = tail call i32 @__cxa_atexit(void (i8*)* bitcast (void (%"class.std::ios_base::Init"*)* @_ZNSt8ios_base4InitD1Ev to void (i8*)*), i8* getelementptr inbounds (%"class.std::ios_base::Init", %"class.std::ios_base::Init"* @_ZStL8__ioinit, i64 0, i32 0), i8* nonnull @__dso_handle) #7
  ret void
}


!llvm.module.flags = !{!0, !1, !2, !3}
!llvm.ident = !{!4}

!0 = !{i32 1, !"wchar_size", i32 4}
!1 = !{i32 7, !"PIC Level", i32 2}
!2 = !{i32 7, !"PIE Level", i32 2}
!3 = !{i32 7, !"uwtable", i32 1}
!4 = !{!"clang version 13.0.0"}
!5 = !{!6, !6, i64 0}
!6 = !{!"int", !7, i64 0}
!7 = !{!"omnipotent char", !8, i64 0}
!8 = !{!"Simple C++ TBAA"}
!9 = distinct !{!9, !10}
!10 = !{!"llvm.loop.mustprogress"}
!11 = distinct !{!11, !10}
!12 = distinct !{!12, !10}
!13 = distinct !{!13, !10}
